target datalayout = "e-m:e-p270:32:32-p271:32:32-p272:64:64-i64:64-i128:128-f80:128-n8:16:32:64-S128"
target triple = "x86_64-pc-linux-gnu"

%struct.FunctionCallInfoBaseData = type { ptr, ptr, ptr, i32, i8, i16, [0 x %struct.NullableDatum] }
%struct.NullableDatum = type { i64, i8 }
%struct.GISTENTRY = type { i64, ptr, ptr, i16, i8 }
%struct.GistInetKey = type { i8, i8, i8, i8, [16 x i8] }
%struct.varattrib_1b = type { i8, [0 x i8] }
%struct.anon = type { i32, [0 x i8] }
%struct.inet_struct = type { i8, i8, [16 x i8] }

; Function Attrs: inlinehint nounwind uwtable
define internal i64 @PointerGetDatum(ptr noundef %0) #2 {
  %2 = alloca ptr, align 8
  store ptr %0, ptr %2, align 8
  %3 = load ptr, ptr %2, align 8
  %4 = ptrtoint ptr %3 to i64
  ret i64 %4
}

; Function Attrs: inlinehint nounwind uwtable
define internal i64 @InetPGetDatum(ptr noundef %0) #2 {
  %2 = alloca ptr, align 8
  store ptr %0, ptr %2, align 8
  %3 = load ptr, ptr %2, align 8
  %4 = call i64 @PointerGetDatum(ptr noundef %3)
  ret i64 %4
}

; Function Attrs: inlinehint nounwind uwtable
define internal ptr @DatumGetPointer(i64 noundef %0) #2 {
  %2 = alloca i64, align 8
  store i64 %0, ptr %2, align 8
  %3 = load i64, ptr %2, align 8
  %4 = inttoptr i64 %3 to ptr
  ret ptr %4
}

; Function Attrs: nounwind uwtable
define dso_local i64 @inet_gist_fetch(ptr noundef %0) #0 {
  %2 = alloca ptr, align 8
  %3 = alloca ptr, align 8
  %4 = alloca ptr, align 8
  %5 = alloca ptr, align 8
  %6 = alloca ptr, align 8
  store ptr %0, ptr %2, align 8
  call void @llvm.lifetime.start.p0(i64 8, ptr %3) #7
  %7 = load ptr, ptr %2, align 8
  %8 = getelementptr inbounds nuw %struct.FunctionCallInfoBaseData, ptr %7, i32 0, i32 6
  %9 = getelementptr inbounds [0 x %struct.NullableDatum], ptr %8, i64 0, i64 0
  %10 = getelementptr inbounds nuw %struct.NullableDatum, ptr %9, i32 0, i32 0
  %11 = load i64, ptr %10, align 8
  %12 = call ptr @DatumGetPointer(i64 noundef %11)
  store ptr %12, ptr %3, align 8
  call void @llvm.lifetime.start.p0(i64 8, ptr %4) #7
  %13 = load ptr, ptr %3, align 8
  %14 = getelementptr inbounds nuw %struct.GISTENTRY, ptr %13, i32 0, i32 0
  %15 = load i64, ptr %14, align 8
  %16 = call ptr @DatumGetPointer(i64 noundef %15)
  store ptr %16, ptr %4, align 8
  call void @llvm.lifetime.start.p0(i64 8, ptr %5) #7
  call void @llvm.lifetime.start.p0(i64 8, ptr %6) #7
  %17 = call ptr @palloc0(i64 noundef 22)
  store ptr %17, ptr %6, align 8
  %18 = load ptr, ptr %4, align 8
  %19 = getelementptr inbounds nuw %struct.GistInetKey, ptr %18, i32 0, i32 1
  %20 = load i8, ptr %19, align 1
  %21 = load ptr, ptr %6, align 8
  %22 = getelementptr inbounds nuw %struct.varattrib_1b, ptr %21, i32 0, i32 0
  %23 = load i8, ptr %22, align 1
  %24 = zext i8 %23 to i32
  %25 = and i32 %24, 1
  %26 = icmp eq i32 %25, 1
  br i1 %26, label %27, label %31

27:                                               ; preds = %1
  %28 = load ptr, ptr %6, align 8
  %29 = getelementptr inbounds nuw %struct.varattrib_1b, ptr %28, i32 0, i32 1
  %30 = getelementptr inbounds [0 x i8], ptr %29, i64 0, i64 0
  br label %35

31:                                               ; preds = %1
  %32 = load ptr, ptr %6, align 8
  %33 = getelementptr inbounds nuw %struct.anon, ptr %32, i32 0, i32 1
  %34 = getelementptr inbounds [0 x i8], ptr %33, i64 0, i64 0
  br label %35

35:                                               ; preds = %31, %27
  %36 = phi ptr [ %30, %27 ], [ %34, %31 ]
  %37 = getelementptr inbounds nuw %struct.inet_struct, ptr %36, i32 0, i32 0
  store i8 %20, ptr %37, align 1
  %38 = load ptr, ptr %4, align 8
  %39 = getelementptr inbounds nuw %struct.GistInetKey, ptr %38, i32 0, i32 2
  %40 = load i8, ptr %39, align 1
  %41 = load ptr, ptr %6, align 8
  %42 = getelementptr inbounds nuw %struct.varattrib_1b, ptr %41, i32 0, i32 0
  %43 = load i8, ptr %42, align 1
  %44 = zext i8 %43 to i32
  %45 = and i32 %44, 1
  %46 = icmp eq i32 %45, 1
  br i1 %46, label %47, label %51

47:                                               ; preds = %35
  %48 = load ptr, ptr %6, align 8
  %49 = getelementptr inbounds nuw %struct.varattrib_1b, ptr %48, i32 0, i32 1
  %50 = getelementptr inbounds [0 x i8], ptr %49, i64 0, i64 0
  br label %55

51:                                               ; preds = %35
  %52 = load ptr, ptr %6, align 8
  %53 = getelementptr inbounds nuw %struct.anon, ptr %52, i32 0, i32 1
  %54 = getelementptr inbounds [0 x i8], ptr %53, i64 0, i64 0
  br label %55

55:                                               ; preds = %51, %47
  %56 = phi ptr [ %50, %47 ], [ %54, %51 ]
  %57 = getelementptr inbounds nuw %struct.inet_struct, ptr %56, i32 0, i32 1
  store i8 %40, ptr %57, align 1
  %58 = load ptr, ptr %6, align 8
  %59 = getelementptr inbounds nuw %struct.varattrib_1b, ptr %58, i32 0, i32 0
  %60 = load i8, ptr %59, align 1
  %61 = zext i8 %60 to i32
  %62 = and i32 %61, 1
  %63 = icmp eq i32 %62, 1
  br i1 %63, label %64, label %68

64:                                               ; preds = %55
  %65 = load ptr, ptr %6, align 8
  %66 = getelementptr inbounds nuw %struct.varattrib_1b, ptr %65, i32 0, i32 1
  %67 = getelementptr inbounds [0 x i8], ptr %66, i64 0, i64 0
  br label %72

68:                                               ; preds = %55
  %69 = load ptr, ptr %6, align 8
  %70 = getelementptr inbounds nuw %struct.anon, ptr %69, i32 0, i32 1
  %71 = getelementptr inbounds [0 x i8], ptr %70, i64 0, i64 0
  br label %72

72:                                               ; preds = %68, %64
  %73 = phi ptr [ %67, %64 ], [ %71, %68 ]
  %74 = getelementptr inbounds nuw %struct.inet_struct, ptr %73, i32 0, i32 2
  %75 = getelementptr inbounds [16 x i8], ptr %74, i64 0, i64 0
  %76 = load ptr, ptr %4, align 8
  %77 = getelementptr inbounds nuw %struct.GistInetKey, ptr %76, i32 0, i32 4
  %78 = getelementptr inbounds [16 x i8], ptr %77, i64 0, i64 0
  %79 = load ptr, ptr %6, align 8
  %80 = getelementptr inbounds nuw %struct.varattrib_1b, ptr %79, i32 0, i32 0
  %81 = load i8, ptr %80, align 1
  %82 = zext i8 %81 to i32
  %83 = and i32 %82, 1
  %84 = icmp eq i32 %83, 1
  br i1 %84, label %85, label %89

85:                                               ; preds = %72
  %86 = load ptr, ptr %6, align 8
  %87 = getelementptr inbounds nuw %struct.varattrib_1b, ptr %86, i32 0, i32 1
  %88 = getelementptr inbounds [0 x i8], ptr %87, i64 0, i64 0
  br label %93

89:                                               ; preds = %72
  %90 = load ptr, ptr %6, align 8
  %91 = getelementptr inbounds nuw %struct.anon, ptr %90, i32 0, i32 1
  %92 = getelementptr inbounds [0 x i8], ptr %91, i64 0, i64 0
  br label %93

93:                                               ; preds = %89, %85
  %94 = phi ptr [ %88, %85 ], [ %92, %89 ]
  %95 = getelementptr inbounds nuw %struct.inet_struct, ptr %94, i32 0, i32 0
  %96 = load i8, ptr %95, align 1
  %97 = zext i8 %96 to i32
  %98 = icmp eq i32 %97, 2
  %99 = select i1 %98, i32 4, i32 16
  %100 = sext i32 %99 to i64
  call void @llvm.memcpy.p0.p0.i64(ptr align 1 %75, ptr align 1 %78, i64 %100, i1 false)
  %101 = load ptr, ptr %6, align 8
  %102 = getelementptr inbounds nuw %struct.varattrib_1b, ptr %101, i32 0, i32 0
  %103 = load i8, ptr %102, align 1
  %104 = zext i8 %103 to i32
  %105 = and i32 %104, 1
  %106 = icmp eq i32 %105, 1
  br i1 %106, label %107, label %111

107:                                              ; preds = %93
  %108 = load ptr, ptr %6, align 8
  %109 = getelementptr inbounds nuw %struct.varattrib_1b, ptr %108, i32 0, i32 1
  %110 = getelementptr inbounds [0 x i8], ptr %109, i64 0, i64 0
  br label %115

111:                                              ; preds = %93
  %112 = load ptr, ptr %6, align 8
  %113 = getelementptr inbounds nuw %struct.anon, ptr %112, i32 0, i32 1
  %114 = getelementptr inbounds [0 x i8], ptr %113, i64 0, i64 0
  br label %115

115:                                              ; preds = %111, %107
  %116 = phi ptr [ %110, %107 ], [ %114, %111 ]
  %117 = getelementptr inbounds nuw %struct.inet_struct, ptr %116, i32 0, i32 0
  %118 = load i8, ptr %117, align 1
  %119 = zext i8 %118 to i32
  %120 = icmp eq i32 %119, 2
  %121 = select i1 %120, i32 4, i32 16
  %122 = sext i32 %121 to i64
  %123 = add i64 6, %122
  %124 = trunc i64 %123 to i32
  %125 = shl i32 %124, 2
  %126 = load ptr, ptr %6, align 8
  %127 = getelementptr inbounds nuw %struct.anon, ptr %126, i32 0, i32 0
  store i32 %125, ptr %127, align 4
  %128 = call ptr @palloc(i64 noundef 32)
  store ptr %128, ptr %5, align 8
  br label %129

129:                                              ; preds = %115
  %130 = load ptr, ptr %6, align 8
  %131 = call i64 @InetPGetDatum(ptr noundef %130)
  %132 = load ptr, ptr %5, align 8
  %133 = getelementptr inbounds nuw %struct.GISTENTRY, ptr %132, i32 0, i32 0
  store i64 %131, ptr %133, align 8
  %134 = load ptr, ptr %3, align 8
  %135 = getelementptr inbounds nuw %struct.GISTENTRY, ptr %134, i32 0, i32 1
  %136 = load ptr, ptr %135, align 8
  %137 = load ptr, ptr %5, align 8
  %138 = getelementptr inbounds nuw %struct.GISTENTRY, ptr %137, i32 0, i32 1
  store ptr %136, ptr %138, align 8
  %139 = load ptr, ptr %3, align 8
  %140 = getelementptr inbounds nuw %struct.GISTENTRY, ptr %139, i32 0, i32 2
  %141 = load ptr, ptr %140, align 8
  %142 = load ptr, ptr %5, align 8
  %143 = getelementptr inbounds nuw %struct.GISTENTRY, ptr %142, i32 0, i32 2
  store ptr %141, ptr %143, align 8
  %144 = load ptr, ptr %3, align 8
  %145 = getelementptr inbounds nuw %struct.GISTENTRY, ptr %144, i32 0, i32 3
  %146 = load i16, ptr %145, align 8
  %147 = load ptr, ptr %5, align 8
  %148 = getelementptr inbounds nuw %struct.GISTENTRY, ptr %147, i32 0, i32 3
  store i16 %146, ptr %148, align 8
  %149 = load ptr, ptr %5, align 8
  %150 = getelementptr inbounds nuw %struct.GISTENTRY, ptr %149, i32 0, i32 4
  store i8 0, ptr %150, align 2
  br label %151

151:                                              ; preds = %129
  br label %152

152:                                              ; preds = %151
  %153 = load ptr, ptr %5, align 8
  %154 = call i64 @PointerGetDatum(ptr noundef %153)
  call void @llvm.lifetime.end.p0(i64 8, ptr %6) #7
  call void @llvm.lifetime.end.p0(i64 8, ptr %5) #7
  call void @llvm.lifetime.end.p0(i64 8, ptr %4) #7
  call void @llvm.lifetime.end.p0(i64 8, ptr %3) #7
  ret i64 %154
}