; Function Attrs: nounwind uwtable
define dso_local noundef i64 @inet_gist_fetch(ptr noundef readonly captures(none) %0) local_unnamed_addr #0 {
  %2 = getelementptr inbounds nuw i8, ptr %0, i64 32
  %3 = load i64, ptr %2, align 8
  %4 = inttoptr i64 %3 to ptr
  %5 = load i64, ptr %4, align 8
  %6 = inttoptr i64 %5 to ptr
  %7 = tail call ptr @palloc0(i64 noundef 22) #8
  %8 = getelementptr inbounds nuw i8, ptr %6, i64 1
  %9 = load i8, ptr %8, align 1
  %10 = load i8, ptr %7, align 1
  %11 = and i8 %10, 1
  %.not = icmp eq i8 %11, 0
  %12 = getelementptr inbounds nuw i8, ptr %7, i64 1
  %13 = getelementptr inbounds nuw i8, ptr %7, i64 4
  %14 = select i1 %.not, ptr %13, ptr %12
  store i8 %9, ptr %14, align 1
  %15 = getelementptr inbounds nuw i8, ptr %6, i64 2
  %16 = load i8, ptr %15, align 1
  %17 = getelementptr inbounds nuw i8, ptr %14, i64 1
  store i8 %16, ptr %17, align 1
  %18 = load i8, ptr %7, align 1
  %19 = and i8 %18, 1
  %.not32 = icmp eq i8 %19, 0
  %20 = select i1 %.not32, ptr %13, ptr %12
  %21 = getelementptr inbounds nuw i8, ptr %20, i64 2
  %22 = getelementptr inbounds nuw i8, ptr %6, i64 4
  %23 = load i8, ptr %20, align 1
  %24 = icmp eq i8 %23, 2
  %25 = select i1 %24, i64 4, i64 16
  tail call void @llvm.memcpy.p0.p0.i64(ptr noundef nonnull align 1 dereferenceable(4) %21, ptr noundef nonnull align 1 dereferenceable(4) %22, i64 %25, i1 false)
  %26 = load i8, ptr %7, align 1
  %27 = and i8 %26, 1
  %.not33 = icmp eq i8 %27, 0
  %28 = select i1 %.not33, ptr %13, ptr %12
  %29 = load i8, ptr %28, align 1
  %30 = icmp eq i8 %29, 2
  %31 = select i1 %30, i32 40, i32 88
  store i32 %31, ptr %7, align 4
  %32 = tail call ptr @palloc(i64 noundef 32) #8
  %33 = ptrtoint ptr %7 to i64
  store i64 %33, ptr %32, align 8
  %34 = getelementptr inbounds nuw i8, ptr %4, i64 8
  %35 = load ptr, ptr %34, align 8
  %36 = getelementptr inbounds nuw i8, ptr %32, i64 8
  store ptr %35, ptr %36, align 8
  %37 = getelementptr inbounds nuw i8, ptr %4, i64 16
  %38 = load ptr, ptr %37, align 8
  %39 = getelementptr inbounds nuw i8, ptr %32, i64 16
  store ptr %38, ptr %39, align 8
  %40 = getelementptr inbounds nuw i8, ptr %4, i64 24
  %41 = load i16, ptr %40, align 8
  %42 = getelementptr inbounds nuw i8, ptr %32, i64 24
  store i16 %41, ptr %42, align 8
  %43 = getelementptr inbounds nuw i8, ptr %32, i64 26
  store i8 0, ptr %43, align 2
  %44 = ptrtoint ptr %32 to i64
  ret i64 %44
}